target datalayout = "e-m:e-p270:32:32-p271:32:32-p272:64:64-i64:64-i128:128-f80:128-n8:16:32:64-S128"
target triple = "x86_64-pc-linux-gnu"

%"class.clang::QualType" = type { %"class.llvm::PointerIntPair.139" }
%"class.llvm::PointerIntPair.139" = type { %"struct.llvm::detail::PunnedPointer.140" }
%"struct.llvm::detail::PunnedPointer.140" = type { [8 x i8] }
%"class.clang::SourceLocation" = type { i32 }
%"class.clang::DeclContext" = type { ptr, %union.anon.428, ptr, ptr }
%union.anon.428 = type { %"class.clang::DeclContext::RecordDeclBitfields" }
%"class.clang::DeclContext::RecordDeclBitfields" = type { i64 }
%"class.clang::DeclContext::FunctionDeclBitfields" = type <{ i16, i32, [2 x i8] }>

; Function Attrs: mustprogress nounwind uwtable
define linkonce_odr hidden void @_ZN5clang12FunctionDecl22setHasWrittenPrototypeEb(ptr noundef nonnull align 8 dereferenceable(168) %0, i1 noundef zeroext %1) #0 comdat align 2 {
  %3 = alloca ptr, align 8
  %4 = alloca i8, align 1
  store ptr %0, ptr %3, align 8
  %5 = zext i1 %1 to i8
  store i8 %5, ptr %4, align 1
  %6 = load ptr, ptr %3, align 8
  %7 = load i8, ptr %4, align 1
  %8 = trunc i8 %7 to i1
  %9 = zext i1 %8 to i64
  %10 = getelementptr inbounds i8, ptr %6, i64 72
  %11 = getelementptr inbounds nuw %"class.clang::DeclContext", ptr %10, i32 0, i32 1
  %12 = getelementptr inbounds nuw %"class.clang::DeclContext::FunctionDeclBitfields", ptr %11, i32 0, i32 1
  %13 = trunc i64 %9 to i32
  %14 = load i32, ptr %12, align 2
  %15 = and i32 %13, 1
  %16 = shl i32 %15, 5
  %17 = and i32 %14, -33
  %18 = or i32 %17, %16
  store i32 %18, ptr %12, align 2
  ret void
}

; Function Attrs: mustprogress nounwind uwtable
define dso_local noundef ptr @_ZN5clang12FunctionDecl6CreateERNS_10ASTContextEPNS_11DeclContextENS_14SourceLocationERKNS_19DeclarationNameInfoENS_8QualTypeEPNS_14TypeSourceInfoENS_12StorageClassEbbbNS_17ConstexprSpecKindEPNS_4ExprE(ptr noundef nonnull align 8 dereferenceable(23096) %0, ptr noundef %1, i32 %2, ptr noundef nonnull align 8 dereferenceable(24) %3, i64 %4, ptr noundef %5, i32 noundef %6, i1 noundef zeroext %7, i1 noundef zeroext %8, i1 noundef zeroext %9, i32 noundef %10, ptr noundef %11) #0 align 2 {
  %13 = alloca %"class.clang::SourceLocation", align 4
  %14 = alloca %"class.clang::QualType", align 8
  %15 = alloca ptr, align 8
  %16 = alloca ptr, align 8
  %17 = alloca ptr, align 8
  %18 = alloca ptr, align 8
  %19 = alloca i32, align 4
  %20 = alloca i8, align 1
  %21 = alloca i8, align 1
  %22 = alloca i8, align 1
  %23 = alloca i32, align 4
  %24 = alloca ptr, align 8
  %25 = alloca ptr, align 8
  %26 = alloca %"class.clang::SourceLocation", align 4
  %27 = alloca %"class.clang::QualType", align 8
  %28 = getelementptr inbounds nuw %"class.clang::SourceLocation", ptr %13, i32 0, i32 0
  store i32 %2, ptr %28, align 4
  %29 = getelementptr inbounds nuw %"class.clang::QualType", ptr %14, i32 0, i32 0
  %30 = getelementptr inbounds nuw %"class.llvm::PointerIntPair.139", ptr %29, i32 0, i32 0
  %31 = getelementptr inbounds nuw %"struct.llvm::detail::PunnedPointer.140", ptr %30, i32 0, i32 0
  store i64 %4, ptr %31, align 8
  store ptr %0, ptr %15, align 8
  store ptr %1, ptr %16, align 8
  store ptr %3, ptr %17, align 8
  store ptr %5, ptr %18, align 8
  store i32 %6, ptr %19, align 4
  %32 = zext i1 %7 to i8
  store i8 %32, ptr %20, align 1
  %33 = zext i1 %8 to i8
  store i8 %33, ptr %21, align 1
  %34 = zext i1 %9 to i8
  store i8 %34, ptr %22, align 1
  store i32 %10, ptr %23, align 4
  store ptr %11, ptr %24, align 8
  %35 = load ptr, ptr %15, align 8
  %36 = load ptr, ptr %16, align 8
  %37 = call noundef ptr @_ZN5clang4DeclnwEmRKNS_10ASTContextEPNS_11DeclContextEm(i64 noundef 168, ptr noundef nonnull align 8 dereferenceable(23096) %35, ptr noundef %36, i64 noundef 0)
  %38 = load ptr, ptr %15, align 8
  %39 = load ptr, ptr %16, align 8
  call void @llvm.memcpy.p0.p0.i64(ptr align 4 %26, ptr align 4 %13, i64 4, i1 false)
  %40 = load ptr, ptr %17, align 8
  call void @llvm.memcpy.p0.p0.i64(ptr align 8 %27, ptr align 8 %14, i64 8, i1 false)
  %41 = load ptr, ptr %18, align 8
  %42 = load i32, ptr %19, align 4
  %43 = load i8, ptr %20, align 1
  %44 = trunc i8 %43 to i1
  %45 = load i8, ptr %21, align 1
  %46 = trunc i8 %45 to i1
  %47 = load i32, ptr %23, align 4
  %48 = load ptr, ptr %24, align 8
  %49 = getelementptr inbounds nuw %"class.clang::SourceLocation", ptr %26, i32 0, i32 0
  %50 = load i32, ptr %49, align 4
  %51 = getelementptr inbounds nuw %"class.clang::QualType", ptr %27, i32 0, i32 0
  %52 = getelementptr inbounds nuw %"class.llvm::PointerIntPair.139", ptr %51, i32 0, i32 0
  %53 = getelementptr inbounds nuw %"struct.llvm::detail::PunnedPointer.140", ptr %52, i32 0, i32 0
  %54 = load i64, ptr %53, align 8
  call void @_ZN5clang12FunctionDeclC1ENS_4Decl4KindERNS_10ASTContextEPNS_11DeclContextENS_14SourceLocationERKNS_19DeclarationNameInfoENS_8QualTypeEPNS_14TypeSourceInfoENS_12StorageClassEbbNS_17ConstexprSpecKindEPNS_4ExprE(ptr noundef nonnull align 8 dereferenceable(168) %37, i32 noundef 31, ptr noundef nonnull align 8 dereferenceable(23096) %38, ptr noundef %39, i32 %50, ptr noundef nonnull align 8 dereferenceable(24) %40, i64 %54, ptr noundef %41, i32 noundef %42, i1 noundef zeroext %44, i1 noundef zeroext %46, i32 noundef %47, ptr noundef %48)
  store ptr %37, ptr %25, align 8
  %55 = load ptr, ptr %25, align 8
  %56 = load i8, ptr %22, align 1
  %57 = trunc i8 %56 to i1
  call void @_ZN5clang12FunctionDecl22setHasWrittenPrototypeEb(ptr noundef nonnull align 8 dereferenceable(168) %55, i1 noundef zeroext %57)
  %58 = load ptr, ptr %25, align 8
  ret ptr %58
}