; Function Attrs: mustprogress nounwind uwtable
define dso_local noundef ptr @_ZN5clang12FunctionDecl6CreateERNS_10ASTContextEPNS_11DeclContextENS_14SourceLocationERKNS_19DeclarationNameInfoENS_8QualTypeEPNS_14TypeSourceInfoENS_12StorageClassEbbbNS_17ConstexprSpecKindEPNS_4ExprE(ptr noundef nonnull align 8 dereferenceable(23096) %0, ptr noundef %1, i32 %2, ptr noundef nonnull align 8 dereferenceable(24) %3, i64 %4, ptr noundef %5, i32 noundef %6, i1 noundef zeroext %7, i1 noundef zeroext %8, i1 noundef zeroext %9, i32 noundef %10, ptr noundef %11) local_unnamed_addr #2 align 2 {
  %13 = tail call noundef ptr @_ZN5clang4DeclnwEmRKNS_10ASTContextEPNS_11DeclContextEm(i64 noundef 168, ptr noundef nonnull align 8 dereferenceable(23096) %0, ptr noundef %1, i64 noundef 0) #27
  tail call void @_ZN5clang12FunctionDeclC1ENS_4Decl4KindERNS_10ASTContextEPNS_11DeclContextENS_14SourceLocationERKNS_19DeclarationNameInfoENS_8QualTypeEPNS_14TypeSourceInfoENS_12StorageClassEbbNS_17ConstexprSpecKindEPNS_4ExprE(ptr noundef nonnull align 8 dereferenceable(168) %13, i32 noundef 31, ptr noundef nonnull align 8 dereferenceable(23096) %0, ptr noundef %1, i32 %2, ptr noundef nonnull align 8 dereferenceable(24) %3, i64 %4, ptr noundef %5, i32 noundef %6, i1 noundef zeroext %7, i1 noundef zeroext %8, i32 noundef %10, ptr noundef %11) #27
  %14 = getelementptr inbounds i8, ptr %13, i64 82
  %15 = load i32, ptr %14, align 2
  %16 = select i1 %9, i32 32, i32 0
  %17 = and i32 %15, -33
  %18 = or disjoint i32 %17, %16
  store i32 %18, ptr %14, align 2
  ret ptr %13
}